target datalayout = "e-m:e-p270:32:32-p271:32:32-p272:64:64-i64:64-i128:128-f80:128-n8:16:32:64-S128"
target triple = "x86_64-pc-linux-gnu"

@.str = private unnamed_addr constant [124 x i8] c"generated/home/dtcxzyw/WorkSpace/Projects/compilers/llvm-opt-benchmark/bench/libquic/libquic/boringssl/crypto/x509/t_x509.c\00", align 1
@.str.31 = private unnamed_addr constant [3 x i8] c", \00", align 1

; Function Attrs: nounwind uwtable
define hidden i32 @X509_NAME_print(ptr noundef %0, ptr noundef %1, i32 noundef %2) #0 {
  %4 = alloca i32, align 4
  %5 = alloca ptr, align 8
  %6 = alloca ptr, align 8
  %7 = alloca i32, align 4
  %8 = alloca ptr, align 8
  %9 = alloca ptr, align 8
  %10 = alloca ptr, align 8
  %11 = alloca i32, align 4
  %12 = alloca i32, align 4
  %13 = alloca i32, align 4
  %14 = alloca i32, align 4
  store ptr %0, ptr %5, align 8, !tbaa !15
  store ptr %1, ptr %6, align 8, !tbaa !79
  store i32 %2, ptr %7, align 4, !tbaa !17
  call void @llvm.lifetime.start.p0(i64 8, ptr %8) #5
  call void @llvm.lifetime.start.p0(i64 8, ptr %9) #5
  call void @llvm.lifetime.start.p0(i64 8, ptr %10) #5
  call void @llvm.lifetime.start.p0(i64 4, ptr %11) #5
  store i32 0, ptr %11, align 4, !tbaa !17
  call void @llvm.lifetime.start.p0(i64 4, ptr %12) #5
  call void @llvm.lifetime.start.p0(i64 4, ptr %13) #5
  %15 = load i32, ptr %7, align 4, !tbaa !17
  %16 = sub nsw i32 78, %15
  store i32 %16, ptr %12, align 4, !tbaa !17
  %17 = load ptr, ptr %6, align 8, !tbaa !79
  %18 = call ptr @X509_NAME_oneline(ptr noundef %17, ptr noundef null, i32 noundef 0)
  store ptr %18, ptr %10, align 8, !tbaa !19
  %19 = load ptr, ptr %10, align 8, !tbaa !19
  %20 = icmp ne ptr %19, null
  br i1 %20, label %22, label %21

21:                                               ; preds = %3
  store i32 0, ptr %4, align 4
  store i32 1, ptr %14, align 4
  br label %125

22:                                               ; preds = %3
  %23 = load ptr, ptr %10, align 8, !tbaa !19
  %24 = load i8, ptr %23, align 1, !tbaa !21
  %25 = icmp ne i8 %24, 0
  br i1 %25, label %28, label %26

26:                                               ; preds = %22
  %27 = load ptr, ptr %10, align 8, !tbaa !19
  call void @free(ptr noundef %27) #5
  store i32 1, ptr %4, align 4
  store i32 1, ptr %14, align 4
  br label %125

28:                                               ; preds = %22
  %29 = load ptr, ptr %10, align 8, !tbaa !19
  %30 = getelementptr inbounds i8, ptr %29, i64 1
  store ptr %30, ptr %8, align 8, !tbaa !19
  %31 = load ptr, ptr %8, align 8, !tbaa !19
  store ptr %31, ptr %9, align 8, !tbaa !19
  br label %32

32:                                               ; preds = %114, %28
  %33 = load ptr, ptr %8, align 8, !tbaa !19
  %34 = load i8, ptr %33, align 1, !tbaa !21
  %35 = sext i8 %34 to i32
  %36 = icmp eq i32 %35, 47
  br i1 %36, label %37, label %73

37:                                               ; preds = %32
  %38 = load ptr, ptr %8, align 8, !tbaa !19
  %39 = getelementptr inbounds i8, ptr %38, i64 1
  %40 = load i8, ptr %39, align 1, !tbaa !21
  %41 = sext i8 %40 to i32
  %42 = icmp sge i32 %41, 65
  br i1 %42, label %43, label %73

43:                                               ; preds = %37
  %44 = load ptr, ptr %8, align 8, !tbaa !19
  %45 = getelementptr inbounds i8, ptr %44, i64 1
  %46 = load i8, ptr %45, align 1, !tbaa !21
  %47 = sext i8 %46 to i32
  %48 = icmp sle i32 %47, 90
  br i1 %48, label %49, label %73

49:                                               ; preds = %43
  %50 = load ptr, ptr %8, align 8, !tbaa !19
  %51 = getelementptr inbounds i8, ptr %50, i64 2
  %52 = load i8, ptr %51, align 1, !tbaa !21
  %53 = sext i8 %52 to i32
  %54 = icmp eq i32 %53, 61
  br i1 %54, label %78, label %55

55:                                               ; preds = %49
  %56 = load ptr, ptr %8, align 8, !tbaa !19
  %57 = getelementptr inbounds i8, ptr %56, i64 2
  %58 = load i8, ptr %57, align 1, !tbaa !21
  %59 = sext i8 %58 to i32
  %60 = icmp sge i32 %59, 65
  br i1 %60, label %61, label %73

61:                                               ; preds = %55
  %62 = load ptr, ptr %8, align 8, !tbaa !19
  %63 = getelementptr inbounds i8, ptr %62, i64 2
  %64 = load i8, ptr %63, align 1, !tbaa !21
  %65 = sext i8 %64 to i32
  %66 = icmp sle i32 %65, 90
  br i1 %66, label %67, label %73

67:                                               ; preds = %61
  %68 = load ptr, ptr %8, align 8, !tbaa !19
  %69 = getelementptr inbounds i8, ptr %68, i64 3
  %70 = load i8, ptr %69, align 1, !tbaa !21
  %71 = sext i8 %70 to i32
  %72 = icmp eq i32 %71, 61
  br i1 %72, label %78, label %73

73:                                               ; preds = %67, %61, %55, %43, %37, %32
  %74 = load ptr, ptr %8, align 8, !tbaa !19
  %75 = load i8, ptr %74, align 1, !tbaa !21
  %76 = sext i8 %75 to i32
  %77 = icmp eq i32 %76, 0
  br i1 %77, label %78, label %108

78:                                               ; preds = %73, %67, %49
  %79 = load ptr, ptr %8, align 8, !tbaa !19
  %80 = load ptr, ptr %9, align 8, !tbaa !19
  %81 = ptrtoint ptr %79 to i64
  %82 = ptrtoint ptr %80 to i64
  %83 = sub i64 %81, %82
  %84 = trunc i64 %83 to i32
  store i32 %84, ptr %13, align 4, !tbaa !17
  %85 = load ptr, ptr %5, align 8, !tbaa !15
  %86 = load ptr, ptr %9, align 8, !tbaa !19
  %87 = load i32, ptr %13, align 4, !tbaa !17
  %88 = call i32 @BIO_write(ptr noundef %85, ptr noundef %86, i32 noundef %87)
  %89 = load i32, ptr %13, align 4, !tbaa !17
  %90 = icmp ne i32 %88, %89
  br i1 %90, label %91, label %92

91:                                               ; preds = %78
  br label %121

92:                                               ; preds = %78
  %93 = load ptr, ptr %8, align 8, !tbaa !19
  %94 = getelementptr inbounds i8, ptr %93, i64 1
  store ptr %94, ptr %9, align 8, !tbaa !19
  %95 = load ptr, ptr %8, align 8, !tbaa !19
  %96 = load i8, ptr %95, align 1, !tbaa !21
  %97 = sext i8 %96 to i32
  %98 = icmp ne i32 %97, 0
  br i1 %98, label %99, label %105

99:                                               ; preds = %92
  %100 = load ptr, ptr %5, align 8, !tbaa !15
  %101 = call i32 @BIO_write(ptr noundef %100, ptr noundef @.str.31, i32 noundef 2)
  %102 = icmp ne i32 %101, 2
  br i1 %102, label %103, label %104

103:                                              ; preds = %99
  br label %121

104:                                              ; preds = %99
  br label %105

105:                                              ; preds = %104, %92
  %106 = load i32, ptr %12, align 4, !tbaa !17
  %107 = add nsw i32 %106, -1
  store i32 %107, ptr %12, align 4, !tbaa !17
  br label %108

108:                                              ; preds = %105, %73
  %109 = load ptr, ptr %8, align 8, !tbaa !19
  %110 = load i8, ptr %109, align 1, !tbaa !21
  %111 = sext i8 %110 to i32
  %112 = icmp eq i32 %111, 0
  br i1 %112, label %113, label %114

113:                                              ; preds = %108
  br label %119

114:                                              ; preds = %108
  %115 = load ptr, ptr %8, align 8, !tbaa !19
  %116 = getelementptr inbounds nuw i8, ptr %115, i32 1
  store ptr %116, ptr %8, align 8, !tbaa !19
  %117 = load i32, ptr %12, align 4, !tbaa !17
  %118 = add nsw i32 %117, -1
  store i32 %118, ptr %12, align 4, !tbaa !17
  br label %32

119:                                              ; preds = %113
  store i32 1, ptr %11, align 4, !tbaa !17
  br i1 false, label %120, label %122

120:                                              ; preds = %119
  br label %121

121:                                              ; preds = %120, %103, %91
  call void @ERR_put_error(i32 noundef 11, i32 noundef 0, i32 noundef 7, ptr noundef @.str, i32 noundef 502)
  br label %122

122:                                              ; preds = %121, %119
  %123 = load ptr, ptr %10, align 8, !tbaa !19
  call void @free(ptr noundef %123) #5
  %124 = load i32, ptr %11, align 4, !tbaa !17
  store i32 %124, ptr %4, align 4
  store i32 1, ptr %14, align 4
  br label %125

125:                                              ; preds = %122, %26, %21
  call void @llvm.lifetime.end.p0(i64 4, ptr %13) #5
  call void @llvm.lifetime.end.p0(i64 4, ptr %12) #5
  call void @llvm.lifetime.end.p0(i64 4, ptr %11) #5
  call void @llvm.lifetime.end.p0(i64 8, ptr %10) #5
  call void @llvm.lifetime.end.p0(i64 8, ptr %9) #5
  call void @llvm.lifetime.end.p0(i64 8, ptr %8) #5
  %126 = load i32, ptr %4, align 4
  ret i32 %126
}