; Function Attrs: nounwind uwtable
define hidden range(i32 0, 2) i32 @X509_NAME_print(ptr noundef %0, ptr noundef %1, i32 noundef %2) local_unnamed_addr #0 {
  %4 = tail call ptr @X509_NAME_oneline(ptr noundef %1, ptr noundef null, i32 noundef 0) #5
  %.not = icmp eq ptr %4, null
  br i1 %.not, label %39, label %5

5:                                                ; preds = %3
  %6 = load i8, ptr %4, align 1, !tbaa !35
  %.not38 = icmp eq i8 %6, 0
  br i1 %.not38, label %.sink.split, label %7

7:                                                ; preds = %5
  %8 = getelementptr inbounds nuw i8, ptr %4, i64 1
  br label %9

9:                                                ; preds = %thread-pre-split.thread, %7
  %.033 = phi ptr [ %8, %7 ], [ %.13446, %thread-pre-split.thread ]
  %.032 = phi ptr [ %8, %7 ], [ %37, %thread-pre-split.thread ]
  %10 = load i8, ptr %.032, align 1, !tbaa !35
  switch i8 %10, label %thread-pre-split.thread [
    i8 47, label %11
    i8 0, label %25
  ]

11:                                               ; preds = %9
  %12 = getelementptr inbounds nuw i8, ptr %.032, i64 1
  %13 = load i8, ptr %12, align 1, !tbaa !35
  %14 = add i8 %13, -65
  %or.cond = icmp ult i8 %14, 26
  br i1 %or.cond, label %15, label %thread-pre-split.thread

15:                                               ; preds = %11
  %16 = getelementptr inbounds nuw i8, ptr %.032, i64 2
  %17 = load i8, ptr %16, align 1, !tbaa !35
  %18 = icmp eq i8 %17, 61
  br i1 %18, label %25, label %19

19:                                               ; preds = %15
  %20 = add i8 %17, -65
  %or.cond42 = icmp ult i8 %20, 26
  br i1 %or.cond42, label %21, label %thread-pre-split.thread

21:                                               ; preds = %19
  %22 = getelementptr inbounds nuw i8, ptr %.032, i64 3
  %23 = load i8, ptr %22, align 1, !tbaa !35
  %24 = icmp eq i8 %23, 61
  br i1 %24, label %25, label %thread-pre-split.thread

25:                                               ; preds = %9, %21, %15
  %26 = ptrtoint ptr %.032 to i64
  %27 = ptrtoint ptr %.033 to i64
  %28 = sub i64 %26, %27
  %29 = trunc i64 %28 to i32
  %30 = tail call i32 @BIO_write(ptr noundef %0, ptr noundef %.033, i32 noundef %29) #5
  %.not39 = icmp eq i32 %30, %29
  br i1 %.not39, label %31, label %38

31:                                               ; preds = %25
  %32 = getelementptr inbounds nuw i8, ptr %.032, i64 1
  %33 = load i8, ptr %.032, align 1, !tbaa !35
  %.not40 = icmp eq i8 %33, 0
  br i1 %.not40, label %.sink.split, label %34

34:                                               ; preds = %31
  %35 = tail call i32 @BIO_write(ptr noundef %0, ptr noundef nonnull @.str.31, i32 noundef 2) #5
  %.not41 = icmp eq i32 %35, 2
  br i1 %.not41, label %thread-pre-split, label %38

thread-pre-split:                                 ; preds = %34
  %.pr.pre.pre = load i8, ptr %.032, align 1, !tbaa !35
  %36 = icmp eq i8 %.pr.pre.pre, 0
  br i1 %36, label %.sink.split, label %thread-pre-split.thread

thread-pre-split.thread:                          ; preds = %11, %19, %21, %9, %thread-pre-split
  %.13446 = phi ptr [ %32, %thread-pre-split ], [ %.033, %9 ], [ %.033, %21 ], [ %.033, %19 ], [ %.033, %11 ]
  %37 = getelementptr inbounds nuw i8, ptr %.032, i64 1
  br label %9

38:                                               ; preds = %34, %25
  tail call void @ERR_put_error(i32 noundef 11, i32 noundef 0, i32 noundef 7, ptr noundef nonnull @.str, i32 noundef 502) #5
  br label %.sink.split

.sink.split:                                      ; preds = %thread-pre-split, %31, %38, %5
  %.0.ph = phi i32 [ 1, %5 ], [ 0, %38 ], [ 1, %31 ], [ 1, %thread-pre-split ]
  tail call void @free(ptr noundef %4) #5
  br label %39

39:                                               ; preds = %.sink.split, %3
  %.0 = phi i32 [ 0, %3 ], [ %.0.ph, %.sink.split ]
  ret i32 %.0
}